; Function Attrs: mustprogress nofree norecurse nosync nounwind willreturn memory(read, argmem: readwrite, inaccessiblemem: none) uwtable
define hidden void @_ZNK3sat4drat10get_statusEb(ptr noalias nocapture writeonly sret(%"class.sat::status") align 8 %agg.result, ptr nocapture noundef nonnull readonly align 8 dereferenceable(664) %this, i1 noundef zeroext %learned) local_unnamed_addr #6 align 2 {
entry:
  br i1 %learned, label %return, label %lor.lhs.false

lor.lhs.false:                                    ; preds = %entry
  %s = getelementptr inbounds i8, ptr %this, i64 16
  %0 = load ptr, ptr %s, align 8
  %m_searching = getelementptr inbounds i8, ptr %0, i64 3337
  %1 = load i8, ptr %m_searching, align 1
  %2 = and i8 %1, 1
  %tobool2.not = icmp eq i8 %2, 0
  %spec.select = select i1 %tobool2.not, i32 1, i32 2
  br label %return

return:                                           ; preds = %lor.lhs.false, %entry
  %.sink = phi i32 [ 2, %entry ], [ %spec.select, %lor.lhs.false ]
  store i32 %.sink, ptr %agg.result, align 8
  %m_orig.i.i1 = getelementptr inbounds i8, ptr %agg.result, i64 4
  store i32 -1, ptr %m_orig.i.i1, align 4
  %m_hint.i.i2 = getelementptr inbounds i8, ptr %agg.result, i64 8
  store ptr null, ptr %m_hint.i.i2, align 8
  ret void
}